; Function Attrs: inlinehint mustprogress uwtable
define internal fastcc void @"_ZZN12seq_rewriter17mk_derivative_recEP4exprS1_ENK3$_0clEv"(ptr dead_on_unwind noalias writable writeonly align 8 captures(none) initializes((0, 16)) %0, ptr %.0.val, ptr nonnull %.8.val.0.val) unnamed_addr #9 align 2 {
  %2 = getelementptr inbounds nuw i8, ptr %.0.val, i64 56
  %3 = tail call noundef ptr @_ZNK4expr8get_sortEv(ptr noundef nonnull align 4 dereferenceable(16) %.8.val.0.val)
  %4 = tail call noundef ptr @_ZN8seq_util3rex8mk_emptyEP4sort(ptr noundef nonnull align 8 dereferenceable(80) %2, ptr noundef %3)
  %5 = load ptr, ptr %.0.val, align 8, !tbaa !85
  store ptr %4, ptr %0, align 8, !tbaa !11
  %6 = getelementptr inbounds nuw i8, ptr %0, i64 8
  store ptr %5, ptr %6, align 8, !tbaa !12
  %.not.i.i = icmp eq ptr %4, null
  br i1 %.not.i.i, label %_ZN7obj_refI4expr11ast_managerEC2EPS0_RS1_.exit, label %_ZN11ast_manager7inc_refEP3ast.exit.i.i

_ZN11ast_manager7inc_refEP3ast.exit.i.i:          ; preds = %1
  %7 = getelementptr inbounds nuw i8, ptr %4, i64 8
  %8 = load i32, ptr %7, align 4, !tbaa !99
  %9 = add i32 %8, 1
  store i32 %9, ptr %7, align 4, !tbaa !99
  br label %_ZN7obj_refI4expr11ast_managerEC2EPS0_RS1_.exit

_ZN7obj_refI4expr11ast_managerEC2EPS0_RS1_.exit:  ; preds = %1, %_ZN11ast_manager7inc_refEP3ast.exit.i.i
  ret void
}